target datalayout = "e-m:e-p270:32:32-p271:32:32-p272:64:64-i64:64-i128:128-f80:128-n8:16:32:64-S128"
target triple = "x86_64-pc-linux-gnu"

%class.ErrorHandler = type <{ i32, i32, i8, i8, i8, i8, i8, i8, [2 x i8] }>

@_ZL9SleepTime = internal global i32 0, align 4
@ErrHandler = external global %class.ErrorHandler, align 4

; Function Attrs: mustprogress nounwind uwtable
define void @_Z17InitSystemOptionsi(i32 noundef %0) #0 {
  %2 = alloca i32, align 4
  store i32 %0, ptr %2, align 4
  %3 = load i32, ptr %2, align 4
  store i32 %3, ptr @_ZL9SleepTime, align 4
  ret void
}

; Function Attrs: mustprogress nounwind uwtable
define void @_Z11SetPriorityi(i32 noundef %0) #0 {
  %2 = alloca i32, align 4
  store i32 %0, ptr %2, align 4
  ret void
}

; Function Attrs: mustprogress nounwind uwtable
define noundef i64 @_Z9MonoClockv() #0 {
  %1 = call i64 @clock() #4
  ret i64 %1
}

; Function Attrs: nounwind
declare i64 @clock() #1

; Function Attrs: mustprogress uwtable
define void @_Z4Waitv() #2 {
  %1 = load i8, ptr getelementptr inbounds (%class.ErrorHandler, ptr @ErrHandler, i32 0, i32 6), align 4
  %2 = trunc i8 %1 to i1
  br i1 %2, label %3, label %4

3:                                                ; preds = %0
  call void @_ZN12ErrorHandler4ExitE8RAR_EXIT(ptr noundef nonnull align 4 dereferenceable(14) @ErrHandler, i32 noundef 255)
  br label %4

4:                                                ; preds = %3, %0
  ret void
}

declare void @_ZN12ErrorHandler4ExitE8RAR_EXIT(ptr noundef nonnull align 4 dereferenceable(14), i32 noundef) #3


!llvm.module.flags = !{!0, !1, !2, !3}

!0 = !{i32 1, !"wchar_size", i32 4}
!1 = !{i32 8, !"PIC Level", i32 2}
!2 = !{i32 7, !"uwtable", i32 2}
!3 = !{i32 7, !"frame-pointer", i32 2}
