; ModuleID = 'bench/clamav/original/system.cpp.ll'
source_filename = "bench/clamav/original/system.cpp.ll"
target datalayout = "e-m:e-p270:32:32-p271:32:32-p272:64:64-i64:64-i128:128-f80:128-n8:16:32:64-S128"
target triple = "x86_64-pc-linux-gnu"

%class.ErrorHandler = type <{ i32, i32, i8, i8, i8, i8, i8, i8, [2 x i8] }>

@ErrHandler = external global %class.ErrorHandler, align 4

; Function Attrs: mustprogress nofree norecurse nosync nounwind willreturn memory(none) uwtable
define void @_Z17InitSystemOptionsi(i32 noundef %0) local_unnamed_addr #0 {
  ret void
}

; Function Attrs: mustprogress nofree norecurse nosync nounwind willreturn memory(none) uwtable
define void @_Z11SetPriorityi(i32 noundef %0) local_unnamed_addr #0 {
  ret void
}

; Function Attrs: mustprogress nounwind uwtable
define noundef i64 @_Z9MonoClockv() local_unnamed_addr #1 {
  %1 = tail call i64 @clock() #5
  ret i64 %1
}

; Function Attrs: nounwind
declare i64 @clock() local_unnamed_addr #2

; Function Attrs: mustprogress uwtable
define void @_Z4Waitv() local_unnamed_addr #3 {
  %1 = load i8, ptr getelementptr inbounds (%class.ErrorHandler, ptr @ErrHandler, i64 0, i32 6), align 4
  %2 = trunc i8 %1 to i1
  br i1 %2, label %3, label %4

3:                                                ; preds = %0
  tail call void @_ZN12ErrorHandler4ExitE8RAR_EXIT(ptr noundef nonnull align 4 dereferenceable(14) @ErrHandler, i32 noundef 255)
  br label %4

4:                                                ; preds = %3, %0
  ret void
}

declare void @_ZN12ErrorHandler4ExitE8RAR_EXIT(ptr noundef nonnull align 4 dereferenceable(14), i32 noundef) local_unnamed_addr #4


!llvm.module.flags = !{!0, !1, !2, !3}

!0 = !{i32 1, !"wchar_size", i32 4}
!1 = !{i32 8, !"PIC Level", i32 2}
!2 = !{i32 7, !"uwtable", i32 2}
!3 = !{i32 7, !"frame-pointer", i32 2}
